; Function Attrs: nounwind uwtable
define void @duckdb_je_hpa_shard_stats_merge(ptr noundef %0, ptr noundef %1, ptr noundef %2) local_unnamed_addr #1 {
  %4 = getelementptr inbounds nuw i8, ptr %1, i64 248
  %5 = tail call i32 @pthread_mutex_trylock(ptr noundef nonnull %4) #8
  %.not.i = icmp eq i32 %5, 0
  br i1 %.not.i, label %9, label %6

6:                                                ; preds = %3
  %7 = getelementptr inbounds nuw i8, ptr %1, i64 176
  tail call void @duckdb_je_malloc_mutex_lock_slow(ptr noundef nonnull %7) #8
  %8 = getelementptr inbounds nuw i8, ptr %1, i64 240
  store atomic i8 1, ptr %8 monotonic, align 1
  br label %9

9:                                                ; preds = %6, %3
  %10 = getelementptr inbounds nuw i8, ptr %1, i64 232
  %11 = load i64, ptr %10, align 8, !tbaa !56
  %12 = add i64 %11, 1
  store i64 %12, ptr %10, align 8, !tbaa !56
  %13 = getelementptr inbounds nuw i8, ptr %1, i64 224
  %14 = load ptr, ptr %13, align 8, !tbaa !60
  %.not.i.i = icmp eq ptr %14, %0
  br i1 %.not.i.i, label %malloc_mutex_lock.exit, label %15

15:                                               ; preds = %9
  store ptr %0, ptr %13, align 8, !tbaa !60
  %16 = getelementptr inbounds nuw i8, ptr %1, i64 216
  %17 = load i64, ptr %16, align 8, !tbaa !61
  %18 = add i64 %17, 1
  store i64 %18, ptr %16, align 8, !tbaa !61
  br label %malloc_mutex_lock.exit

malloc_mutex_lock.exit:                           ; preds = %9, %15
  %19 = getelementptr inbounds nuw i8, ptr %1, i64 136
  %20 = tail call i32 @pthread_mutex_trylock(ptr noundef nonnull %19) #8
  %.not.i13 = icmp eq i32 %20, 0
  br i1 %.not.i13, label %24, label %21

21:                                               ; preds = %malloc_mutex_lock.exit
  %22 = getelementptr inbounds nuw i8, ptr %1, i64 64
  tail call void @duckdb_je_malloc_mutex_lock_slow(ptr noundef nonnull %22) #8
  %23 = getelementptr inbounds nuw i8, ptr %1, i64 128
  store atomic i8 1, ptr %23 monotonic, align 1
  br label %24

24:                                               ; preds = %21, %malloc_mutex_lock.exit
  %25 = getelementptr inbounds nuw i8, ptr %1, i64 120
  %26 = load i64, ptr %25, align 8, !tbaa !56
  %27 = add i64 %26, 1
  store i64 %27, ptr %25, align 8, !tbaa !56
  %28 = getelementptr inbounds nuw i8, ptr %1, i64 112
  %29 = load ptr, ptr %28, align 8, !tbaa !60
  %.not.i.i14 = icmp eq ptr %29, %0
  br i1 %.not.i.i14, label %malloc_mutex_lock.exit15, label %30

30:                                               ; preds = %24
  store ptr %0, ptr %28, align 8, !tbaa !60
  %31 = getelementptr inbounds nuw i8, ptr %1, i64 104
  %32 = load i64, ptr %31, align 8, !tbaa !61
  %33 = add i64 %32, 1
  store i64 %33, ptr %31, align 8, !tbaa !61
  br label %malloc_mutex_lock.exit15

malloc_mutex_lock.exit15:                         ; preds = %24, %30
  %34 = getelementptr inbounds nuw i8, ptr %1, i64 1376
  tail call void @duckdb_je_psset_stats_accum(ptr noundef %2, ptr noundef nonnull %34) #8
  %35 = getelementptr inbounds nuw i8, ptr %2, i64 3168
  %36 = getelementptr inbounds nuw i8, ptr %1, i64 5680
  %37 = load i64, ptr %36, align 8, !tbaa !87
  %38 = load i64, ptr %35, align 8, !tbaa !87
  %39 = add i64 %38, %37
  store i64 %39, ptr %35, align 8, !tbaa !87
  %40 = getelementptr inbounds nuw i8, ptr %1, i64 5688
  %41 = load i64, ptr %40, align 8, !tbaa !88
  %42 = getelementptr inbounds nuw i8, ptr %2, i64 3176
  %43 = load i64, ptr %42, align 8, !tbaa !88
  %44 = add i64 %43, %41
  store i64 %44, ptr %42, align 8, !tbaa !88
  %45 = getelementptr inbounds nuw i8, ptr %1, i64 5696
  %46 = load i64, ptr %45, align 8, !tbaa !89
  %47 = getelementptr inbounds nuw i8, ptr %2, i64 3184
  %48 = load i64, ptr %47, align 8, !tbaa !89
  %49 = add i64 %48, %46
  store i64 %49, ptr %47, align 8, !tbaa !89
  %50 = getelementptr inbounds nuw i8, ptr %1, i64 5704
  %51 = load i64, ptr %50, align 8, !tbaa !90
  %52 = getelementptr inbounds nuw i8, ptr %2, i64 3192
  %53 = load i64, ptr %52, align 8, !tbaa !90
  %54 = add i64 %53, %51
  store i64 %54, ptr %52, align 8, !tbaa !90
  %55 = getelementptr inbounds nuw i8, ptr %1, i64 128
  store atomic i8 0, ptr %55 monotonic, align 1
  %56 = tail call i32 @pthread_mutex_unlock(ptr noundef nonnull %19) #8
  %57 = getelementptr inbounds nuw i8, ptr %1, i64 240
  store atomic i8 0, ptr %57 monotonic, align 1
  %58 = tail call i32 @pthread_mutex_unlock(ptr noundef nonnull %4) #8
  ret void
}